; Function Attrs: mustprogress uwtable
define hidden noundef zeroext i1 @_ZN4cvc58internal6theory2ff8isFfLeafERKNS0_12NodeTemplateILb1EEERKNS0_6FfSizeE(ptr noundef nonnull align 8 dereferenceable(8) %0, ptr noundef nonnull align 8 dereferenceable(16) %1) local_unnamed_addr #3 personality ptr @__gxx_personality_v0 {
  %3 = alloca %"class.cvc5::internal::NodeTemplate.67", align 8
  %4 = alloca %"class.cvc5::internal::TypeNode", align 8
  %5 = alloca %"class.cvc5::internal::TypeNode", align 8
  call void @llvm.lifetime.start.p0(i64 8, ptr nonnull %4) #19
  call void @_ZNK4cvc58internal12NodeTemplateILb1EE7getTypeEb(ptr dead_on_unwind nonnull writable sret(%"class.cvc5::internal::TypeNode") align 8 %4, ptr noundef nonnull align 8 dereferenceable(8) %0, i1 noundef zeroext false)
  %6 = load ptr, ptr %4, align 8, !tbaa !16
  %7 = getelementptr inbounds nuw i8, ptr %6, i64 8
  %8 = load i64, ptr %7, align 8
  %9 = and i64 %8, 1023
  %10 = icmp eq i64 %9, 151
  br i1 %10, label %11, label %.critedge

11:                                               ; preds = %2
  %12 = load ptr, ptr %0, align 8, !tbaa !14
  call void @llvm.lifetime.start.p0(i64 8, ptr nonnull %3)
  %13 = getelementptr inbounds nuw i8, ptr %12, i64 8
  %14 = load i64, ptr %13, align 8
  %15 = trunc i64 %14 to i32
  %16 = and i32 %15, 1023
  %17 = icmp eq i32 %16, 1023
  %18 = select i1 %17, i32 -1, i32 %16
  %19 = invoke noundef i32 @_ZN4cvc58internal4kind10metaKindOfENS1_6Kind_tE(i32 noundef %18)
          to label %.noexc unwind label %63

.noexc:                                           ; preds = %11
  %20 = icmp eq i32 %19, 2
  %21 = load i64, ptr %13, align 8
  %22 = lshr i64 %21, 32
  %23 = and i64 %22, 67108863
  %24 = sext i1 %20 to i64
  %25 = add nsw i64 %23, %24
  %26 = and i64 %25, 4294967295
  %.not.i = icmp eq i64 %26, 0
  br i1 %.not.i, label %.thread, label %27

.thread:                                          ; preds = %.noexc
  call void @llvm.lifetime.end.p0(i64 8, ptr nonnull %3)
  br label %30

27:                                               ; preds = %.noexc
  store ptr %12, ptr %3, align 8, !tbaa !18
  %28 = invoke noundef i32 @_ZN4cvc58internal6theory6Theory8theoryOfENS0_12NodeTemplateILb0EEENS0_7options12TheoryOfModeENS1_8TheoryIdE(ptr noundef nonnull %3, i32 noundef 0, i32 noundef 2)
          to label %29 unwind label %63

29:                                               ; preds = %27
  %.not = icmp eq i32 %28, 5
  call void @llvm.lifetime.end.p0(i64 8, ptr nonnull %3)
  br i1 %.not, label %.critedge, label %30

30:                                               ; preds = %.thread, %29
  call void @llvm.lifetime.start.p0(i64 8, ptr nonnull %5) #19
  invoke void @_ZNK4cvc58internal12NodeTemplateILb1EE7getTypeEb(ptr dead_on_unwind nonnull writable sret(%"class.cvc5::internal::TypeNode") align 8 %5, ptr noundef nonnull align 8 dereferenceable(8) %0, i1 noundef zeroext false)
          to label %31 unwind label %65

31:                                               ; preds = %30
  %32 = invoke noundef nonnull align 8 dereferenceable(16) ptr @_ZNK4cvc58internal8TypeNode9getFfSizeEv(ptr noundef nonnull align 8 dereferenceable(8) %5)
          to label %33 unwind label %67

33:                                               ; preds = %31
  %34 = invoke noundef zeroext i1 @_ZNK4cvc58internal7IntegereqERKS1_(ptr noundef nonnull align 8 dereferenceable(16) %32, ptr noundef nonnull align 8 dereferenceable(16) %1)
          to label %35 unwind label %67

35:                                               ; preds = %33
  %36 = load ptr, ptr %5, align 8, !tbaa !16
  %37 = load i64, ptr %36, align 8
  %38 = and i64 %37, 1152920405095219200
  %.not.i.i = icmp eq i64 %38, 1152920405095219200
  br i1 %.not.i.i, label %.critedge.thread, label %39, !prof !15

39:                                               ; preds = %35
  %40 = add i64 %37, 1152920405095219200
  %41 = and i64 %40, 1152920405095219200
  %42 = and i64 %37, -1152920405095219201
  %43 = or disjoint i64 %41, %42
  store i64 %43, ptr %36, align 8
  %44 = icmp eq i64 %41, 0
  br i1 %44, label %45, label %.critedge.thread, !prof !15

45:                                               ; preds = %39
  invoke void @_ZN4cvc58internal4expr9NodeValue15markForDeletionEv(ptr noundef nonnull align 8 dereferenceable(24) %36)
          to label %.critedge.thread unwind label %46

46:                                               ; preds = %45
  %47 = landingpad { ptr, i32 }
          catch ptr null
  %48 = extractvalue { ptr, i32 } %47, 0
  call void @__clang_call_terminate(ptr %48) #20
  unreachable

.critedge.thread:                                 ; preds = %45, %39, %35
  call void @llvm.lifetime.end.p0(i64 8, ptr nonnull %5) #19
  br label %.critedge

.critedge:                                        ; preds = %29, %.critedge.thread, %2
  %49 = phi i1 [ false, %2 ], [ %34, %.critedge.thread ], [ false, %29 ]
  %50 = load ptr, ptr %4, align 8, !tbaa !16
  %51 = load i64, ptr %50, align 8
  %52 = and i64 %51, 1152920405095219200
  %.not.i.i22 = icmp eq i64 %52, 1152920405095219200
  br i1 %.not.i.i22, label %_ZN4cvc58internal8TypeNodeD2Ev.exit23, label %53, !prof !15

53:                                               ; preds = %.critedge
  %54 = add i64 %51, 1152920405095219200
  %55 = and i64 %54, 1152920405095219200
  %56 = and i64 %51, -1152920405095219201
  %57 = or disjoint i64 %55, %56
  store i64 %57, ptr %50, align 8
  %58 = icmp eq i64 %55, 0
  br i1 %58, label %59, label %_ZN4cvc58internal8TypeNodeD2Ev.exit23, !prof !15

59:                                               ; preds = %53
  invoke void @_ZN4cvc58internal4expr9NodeValue15markForDeletionEv(ptr noundef nonnull align 8 dereferenceable(24) %50)
          to label %_ZN4cvc58internal8TypeNodeD2Ev.exit23 unwind label %60

60:                                               ; preds = %59
  %61 = landingpad { ptr, i32 }
          catch ptr null
  %62 = extractvalue { ptr, i32 } %61, 0
  call void @__clang_call_terminate(ptr %62) #20
  unreachable

_ZN4cvc58internal8TypeNodeD2Ev.exit23:            ; preds = %.critedge, %53, %59
  call void @llvm.lifetime.end.p0(i64 8, ptr nonnull %4) #19
  ret i1 %49

63:                                               ; preds = %27, %11
  %64 = landingpad { ptr, i32 }
          cleanup
  br label %70

65:                                               ; preds = %30
  %66 = landingpad { ptr, i32 }
          cleanup
  br label %69

67:                                               ; preds = %33, %31
  %68 = landingpad { ptr, i32 }
          cleanup
  call void @_ZN4cvc58internal8TypeNodeD2Ev(ptr noundef nonnull align 8 dereferenceable(8) %5) #19
  br label %69

69:                                               ; preds = %65, %67
  %.pn = phi { ptr, i32 } [ %68, %67 ], [ %66, %65 ]
  call void @llvm.lifetime.end.p0(i64 8, ptr nonnull %5) #19
  br label %70

70:                                               ; preds = %69, %63
  %.pn.pn.pn = phi { ptr, i32 } [ %.pn, %69 ], [ %64, %63 ]
  call void @_ZN4cvc58internal8TypeNodeD2Ev(ptr noundef nonnull align 8 dereferenceable(8) %4) #19
  call void @llvm.lifetime.end.p0(i64 8, ptr nonnull %4) #19
  resume { ptr, i32 } %.pn.pn.pn
}